target datalayout = "e-m:e-p270:32:32-p271:32:32-p272:64:64-i64:64-i128:128-f80:128-n8:16:32:64-S128"
target triple = "x86_64-pc-linux-gnu"

@.str = private unnamed_addr constant [12 x i8] c"execvpe %s\0A\00", align 1
@.str.1 = private unnamed_addr constant [3 x i8] c"ld\00", align 1
@.str.2 = private unnamed_addr constant [7 x i8] c"execvp\00", align 1
@environ = external global ptr, align 8
@stderr = external global ptr, align 8
@.str.15 = private unnamed_addr constant [10 x i8] c"MOLD_PATH\00", align 1
@.str.16 = private unnamed_addr constant [22 x i8] c"MOLD_PATH is not set\0A\00", align 1

; Function Attrs: nounwind uwtable
define internal ptr @get_mold_path() #0 {
  %1 = alloca ptr, align 8
  call void @llvm.lifetime.start.p0(i64 8, ptr %1) #8
  %2 = call ptr @getenv(ptr noundef @.str.15) #8
  store ptr %2, ptr %1, align 8, !tbaa !3
  %3 = load ptr, ptr %1, align 8, !tbaa !3
  %4 = icmp ne ptr %3, null
  br i1 %4, label %5, label %7

5:                                                ; preds = %0
  %6 = load ptr, ptr %1, align 8, !tbaa !3
  call void @llvm.lifetime.end.p0(i64 8, ptr %1) #8
  ret ptr %6

7:                                                ; preds = %0
  %8 = load ptr, ptr @stderr, align 8, !tbaa !16
  %9 = call i32 (ptr, ptr, ...) @fprintf(ptr noundef %8, ptr noundef @.str.16) #8
  call void @exit(i32 noundef 1) #9
  unreachable
}

; Function Attrs: nounwind uwtable
define i32 @execvpe(ptr noundef nonnull %0, ptr noundef nonnull %1, ptr noundef %2) #0 {
  %4 = alloca ptr, align 8
  %5 = alloca ptr, align 8
  %6 = alloca ptr, align 8
  %7 = alloca i32, align 4
  %8 = alloca ptr, align 8
  store ptr %0, ptr %4, align 8, !tbaa !3
  store ptr %1, ptr %5, align 8, !tbaa !8
  store ptr %2, ptr %6, align 8, !tbaa !8
  %9 = load ptr, ptr %4, align 8, !tbaa !3
  call void (ptr, ...) @debug_print(ptr noundef @.str, ptr noundef %9)
  %10 = load ptr, ptr %4, align 8, !tbaa !3
  %11 = call i32 @strcmp(ptr noundef %10, ptr noundef @.str.1) #7
  %12 = icmp ne i32 %11, 0
  br i1 %12, label %13, label %16

13:                                               ; preds = %3
  %14 = load ptr, ptr %4, align 8, !tbaa !3
  %15 = call zeroext i1 @is_ld(ptr noundef %14)
  br i1 %15, label %16, label %18

16:                                               ; preds = %13, %3
  %17 = call ptr @get_mold_path()
  store ptr %17, ptr %4, align 8, !tbaa !3
  br label %18

18:                                               ; preds = %16, %13
  call void @llvm.lifetime.start.p0(i64 4, ptr %7) #8
  store i32 0, ptr %7, align 4, !tbaa !11
  br label %19

19:                                               ; preds = %34, %18
  %20 = load ptr, ptr %6, align 8, !tbaa !8
  %21 = load i32, ptr %7, align 4, !tbaa !11
  %22 = sext i32 %21 to i64
  %23 = getelementptr inbounds ptr, ptr %20, i64 %22
  %24 = load ptr, ptr %23, align 8, !tbaa !3
  %25 = icmp ne ptr %24, null
  br i1 %25, label %27, label %26

26:                                               ; preds = %19
  call void @llvm.lifetime.end.p0(i64 4, ptr %7) #8
  br label %37

27:                                               ; preds = %19
  %28 = load ptr, ptr %6, align 8, !tbaa !8
  %29 = load i32, ptr %7, align 4, !tbaa !11
  %30 = sext i32 %29 to i64
  %31 = getelementptr inbounds ptr, ptr %28, i64 %30
  %32 = load ptr, ptr %31, align 8, !tbaa !3
  %33 = call i32 @putenv(ptr noundef %32) #8
  br label %34

34:                                               ; preds = %27
  %35 = load i32, ptr %7, align 4, !tbaa !11
  %36 = add nsw i32 %35, 1
  store i32 %36, ptr %7, align 4, !tbaa !11
  br label %19, !llvm.loop !13

37:                                               ; preds = %26
  call void @llvm.lifetime.start.p0(i64 8, ptr %8) #8
  %38 = call ptr @dlsym(ptr noundef inttoptr (i64 -1 to ptr), ptr noundef @.str.2) #8
  store ptr %38, ptr %8, align 8, !tbaa !15
  %39 = load ptr, ptr %8, align 8, !tbaa !15
  %40 = load ptr, ptr %4, align 8, !tbaa !3
  %41 = load ptr, ptr %5, align 8, !tbaa !8
  %42 = load ptr, ptr @environ, align 8, !tbaa !8
  %43 = call i32 %39(ptr noundef %40, ptr noundef %41, ptr noundef %42)
  call void @llvm.lifetime.end.p0(i64 8, ptr %8) #8
  ret i32 %43
}