; Function Attrs: nounwind uwtable
define i32 @execvpe(ptr noundef nonnull %0, ptr noundef nonnull %1, ptr noundef readonly captures(none) %2) local_unnamed_addr #0 {
sub_0:
  tail call void (ptr, ...) @debug_print(ptr noundef nonnull @.str, ptr noundef nonnull %0)
  %3 = load i8, ptr %0, align 1
  %.not15 = icmp eq i8 %3, 108
  br i1 %.not15, label %sub_1, label %.tail.thread

sub_1:                                            ; preds = %sub_0
  %4 = getelementptr inbounds nuw i8, ptr %0, i64 1
  %5 = load i8, ptr %4, align 1
  %.not16 = icmp eq i8 %5, 100
  br i1 %.not16, label %.tail, label %.tail.thread

.tail:                                            ; preds = %sub_1
  %6 = getelementptr inbounds nuw i8, ptr %0, i64 2
  %7 = load i8, ptr %6, align 1
  %8 = icmp eq i8 %7, 0
  br i1 %8, label %10, label %.tail.thread

.tail.thread:                                     ; preds = %sub_1, %sub_0, %.tail
  %9 = tail call fastcc zeroext i1 @is_ld(ptr noundef %0)
  br i1 %9, label %10, label %get_mold_path.exit

10:                                               ; preds = %.tail.thread, %.tail
  %11 = tail call ptr @getenv(ptr noundef nonnull @.str.15) #11
  %.not.i = icmp eq ptr %11, null
  br i1 %.not.i, label %12, label %get_mold_path.exit

12:                                               ; preds = %10
  %13 = load ptr, ptr @stderr, align 8, !tbaa !3
  %14 = tail call i64 @fwrite(ptr nonnull @.str.16, i64 21, i64 1, ptr %13) #12
  tail call void @exit(i32 noundef 1) #13
  unreachable

get_mold_path.exit:                               ; preds = %10, %.tail.thread
  %.0 = phi ptr [ %0, %.tail.thread ], [ %11, %10 ]
  %15 = load ptr, ptr %2, align 8, !tbaa !8
  %.not1213 = icmp eq ptr %15, null
  br i1 %.not1213, label %._crit_edge, label %.lr.ph

._crit_edge:                                      ; preds = %.lr.ph, %get_mold_path.exit
  %16 = tail call ptr @dlsym(ptr noundef nonnull inttoptr (i64 -1 to ptr), ptr noundef nonnull @.str.2) #11
  %17 = load ptr, ptr @environ, align 8, !tbaa !10
  %18 = tail call i32 %16(ptr noundef nonnull %.0, ptr noundef nonnull %1, ptr noundef %17) #11
  ret i32 %18

.lr.ph:                                           ; preds = %get_mold_path.exit, %.lr.ph
  %indvars.iv = phi i64 [ %indvars.iv.next, %.lr.ph ], [ 0, %get_mold_path.exit ]
  %19 = phi ptr [ %22, %.lr.ph ], [ %15, %get_mold_path.exit ]
  %20 = tail call i32 @putenv(ptr noundef nonnull %19) #11
  %indvars.iv.next = add nuw nsw i64 %indvars.iv, 1
  %21 = getelementptr inbounds nuw ptr, ptr %2, i64 %indvars.iv.next
  %22 = load ptr, ptr %21, align 8, !tbaa !8
  %.not12 = icmp eq ptr %22, null
  br i1 %.not12, label %._crit_edge, label %.lr.ph, !llvm.loop !13
}